ccopy_reg
_reconstructor
p0
(c__main__
pytabSong
p1
c__builtin__
object
p2
Ntp3
Rp4
(dp5
S'objects'
p6
(lp7
g0
(c__main__
pytabMeasure
p8
g2
Ntp9
Rp10
(dp11
S'pageBreak'
p12
I00
sS'repeat'
p13
I01
sS'annotation'
p14
Nsg6
(lp15
g0
(c__main__
pytabBeat
p16
g2
Ntp17
Rp18
(dp19
g6
(lp20
NaNaNag0
(c__main__
pytabNote
p21
g2
Ntp22
Rp23
(dp24
S'hLight'
p25
NsS'string'
p26
I4
sS'fret'
p27
I0
sbasg14
Nsbag0
(g16
g2
Ntp28
Rp29
(dp30
g6
(lp31
Nag0
(g21
g2
Ntp32
Rp33
(dp34
g25
Nsg26
I2
sg27
I3
sbasg14
Nsbag0
(g16
g2
Ntp35
Rp36
(dp37
g6
(lp38
NaNag0
(g21
g2
Ntp39
Rp40
(dp41
g25
Nsg26
I3
sg27
I2
sbasg14
Nsbag0
(g16
g2
Ntp42
Rp43
(dp44
g6
(lp45
NaNag0
(g21
g2
Ntp46
Rp47
(dp48
g25
Nsg26
I3
sg27
I0
sbaNasg14
Nsbag0
(g16
g2
Ntp49
Rp50
(dp51
g6
(lp52
g0
(g21
g2
Ntp53
Rp54
(dp55
g25
Nsg26
I1
sg27
I3
sbasg14
Nsbag0
(g16
g2
Ntp56
Rp57
(dp58
g6
(lp59
NaNag0
(g21
g2
Ntp60
Rp61
(dp62
g25
Nsg26
I3
sg27
I0
sbaNasg14
Nsbag0
(g16
g2
Ntp63
Rp64
(dp65
g6
(lp66
g0
(g21
g2
Ntp67
Rp68
(dp69
g25
Nsg26
I1
sg27
I2
sbasg14
Nsbag0
(g16
g2
Ntp70
Rp71
(dp72
g6
(lp73
NaNag0
(g21
g2
Ntp74
Rp75
(dp76
g25
Nsg26
I3
sg27
I0
sbasg14
Nsbasbag0
(g8
g2
Ntp77
Rp78
(dp79
g12
I00
sg13
I01
sg14
Nsg6
(lp80
g0
(g16
g2
Ntp81
Rp82
(dp83
g6
(lp84
NaNaNag0
(g21
g2
Ntp85
Rp86
(dp87
g25
Nsg26
I4
sg27
I2
sbasg14
Nsbag0
(g16
g2
Ntp88
Rp89
(dp90
g6
(lp91
Nag0
(g21
g2
Ntp92
Rp93
(dp94
g25
Nsg26
I2
sg27
I3
sbasg14
Nsbag0
(g16
g2
Ntp95
Rp96
(dp97
g6
(lp98
NaNag0
(g21
g2
Ntp99
Rp100
(dp101
g25
Nsg26
I3
sg27
I2
sbasg14
Nsbag0
(g16
g2
Ntp102
Rp103
(dp104
g6
(lp105
NaNag0
(g21
g2
Ntp106
Rp107
(dp108
g25
Nsg26
I3
sg27
I0
sbaNasg14
Nsbag0
(g16
g2
Ntp109
Rp110
(dp111
g6
(lp112
g0
(g21
g2
Ntp113
Rp114
(dp115
g25
Nsg26
I1
sg27
I3
sbasg14
Nsbag0
(g16
g2
Ntp116
Rp117
(dp118
g6
(lp119
NaNag0
(g21
g2
Ntp120
Rp121
(dp122
g25
Nsg26
I3
sg27
I0
sbaNasg14
Nsbag0
(g16
g2
Ntp123
Rp124
(dp125
g6
(lp126
g0
(g21
g2
Ntp127
Rp128
(dp129
g25
Nsg26
I1
sg27
I2
sbasg14
Nsbag0
(g16
g2
Ntp130
Rp131
(dp132
g6
(lp133
NaNag0
(g21
g2
Ntp134
Rp135
(dp136
g25
Nsg26
I3
sg27
I0
sbasg14
Nsbasbag0
(g8
g2
Ntp137
Rp138
(dp139
g12
I00
sg13
I01
sg14
Nsg6
(lp140
g0
(g16
g2
Ntp141
Rp142
(dp143
g6
(lp144
NaNag0
(g21
g2
Ntp145
Rp146
(dp147
g25
Nsg26
I3
sg27
I0
sbaNasg14
Nsbag0
(g16
g2
Ntp148
Rp149
(dp150
g6
(lp151
Nag0
(g21
g2
Ntp152
Rp153
(dp154
g25
Nsg26
I2
sg27
I3
sbasg14
Nsbag0
(g16
g2
Ntp155
Rp156
(dp157
g6
(lp158
NaNag0
(g21
g2
Ntp159
Rp160
(dp161
g25
Nsg26
I3
sg27
I2
sbasg14
Nsbag0
(g16
g2
Ntp162
Rp163
(dp164
g6
(lp165
NaNag0
(g21
g2
Ntp166
Rp167
(dp168
g25
Nsg26
I3
sg27
I0
sbaNasg14
Nsbag0
(g16
g2
Ntp169
Rp170
(dp171
g6
(lp172
g0
(g21
g2
Ntp173
Rp174
(dp175
g25
Nsg26
I1
sg27
I3
sbasg14
Nsbag0
(g16
g2
Ntp176
Rp177
(dp178
g6
(lp179
NaNag0
(g21
g2
Ntp180
Rp181
(dp182
g25
Nsg26
I3
sg27
I0
sbaNasg14
Nsbag0
(g16
g2
Ntp183
Rp184
(dp185
g6
(lp186
g0
(g21
g2
Ntp187
Rp188
(dp189
g25
Nsg26
I1
sg27
I2
sbasg14
Nsbag0
(g16
g2
Ntp190
Rp191
(dp192
g6
(lp193
NaNag0
(g21
g2
Ntp194
Rp195
(dp196
g25
Nsg26
I3
sg27
I0
sbasg14
Nsbasbag0
(g8
g2
Ntp197
Rp198
(dp199
g12
I01
sg13
I00
sg14
Nsg6
(lp200
g0
(g16
g2
Ntp201
Rp202
(dp203
g6
(lp204
g0
(g21
g2
Ntp205
Rp206
(dp207
g25
Nsg26
I1
sg27
I0
sbasg14
Nsbag0
(g16
g2
Ntp208
Rp209
(dp210
g6
(lp211
NaNag0
(g21
g2
Ntp212
Rp213
(dp214
g25
Nsg26
I3
sg27
I2
sbaNasg14
Nsbag0
(g16
g2
Ntp215
Rp216
(dp217
g6
(lp218
Nag0
(g21
g2
Ntp219
Rp220
(dp221
g25
Nsg26
I2
sg27
I3
sbasg14
Nsbag0
(g16
g2
Ntp222
Rp223
(dp224
g6
(lp225
NaNag0
(g21
g2
Ntp226
Rp227
(dp228
g25
Nsg26
I3
sg27
I2
sbaNasg14
Nsbag0
(g16
g2
Ntp229
Rp230
(dp231
g6
(lp232
g0
(g21
g2
Ntp233
Rp234
(dp235
g25
Nsg26
I1
sg27
I0
sbasg14
Nsbag0
(g16
g2
Ntp236
Rp237
(dp238
g6
(lp239
NaNag0
(g21
g2
Ntp240
Rp241
(dp242
g25
Nsg26
I3
sg27
I2
sbaNasg14
Nsbag0
(g16
g2
Ntp243
Rp244
(dp245
g6
(lp246
g0
(g21
g2
Ntp247
Rp248
(dp249
g25
Nsg26
I1
sg27
I2
sbasg14
Nsbag0
(g16
g2
Ntp250
Rp251
(dp252
g6
(lp253
NaNag0
(g21
g2
Ntp254
Rp255
(dp256
g25
Nsg26
I3
sg27
I2
sbaNasg14
Nsbag0
(g16
g2
Ntp257
Rp258
(dp259
g6
(lp260
g0
(g21
g2
Ntp261
Rp262
(dp263
g25
Nsg26
I1
sg27
I3
sbasg14
Nsbag0
(g16
g2
Ntp264
Rp265
(dp266
g6
(lp267
NaNag0
(g21
g2
Ntp268
Rp269
(dp270
g25
Nsg26
I3
sg27
I2
sbaNasg14
Nsbag0
(g16
g2
Ntp271
Rp272
(dp273
g6
(lp274
g0
(g21
g2
Ntp275
Rp276
(dp277
g25
Nsg26
I1
sg27
I2
sbasg14
Nsbag0
(g16
g2
Ntp278
Rp279
(dp280
g6
(lp281
NaNag0
(g21
g2
Ntp282
Rp283
(dp284
g25
Nsg26
I3
sg27
I2
sbaNasg14
Nsbag0
(g16
g2
Ntp285
Rp286
(dp287
g6
(lp288
g0
(g21
g2
Ntp289
Rp290
(dp291
g25
Nsg26
I1
sg27
I0
sbaNaNasg14
Nsbag0
(g16
g2
Ntp292
Rp293
(dp294
g6
(lp295
NaNag0
(g21
g2
Ntp296
Rp297
(dp298
g25
Nsg26
I3
sg27
I2
sbaNasg14
Nsbag0
(g16
g2
Ntp299
Rp300
(dp301
g6
(lp302
Nag0
(g21
g2
Ntp303
Rp304
(dp305
g25
Nsg26
I2
sg27
I3
sbasg14
Nsbasbasg14
NsS'songName'
p306
S'Sweet'
p307
sb.